target datalayout = "e-m:e-p270:32:32-p271:32:32-p272:64:64-i64:64-i128:128-f80:128-n8:16:32:64-S128"
target triple = "x86_64-pc-linux-gnu"

%struct.CodedBitstreamType = type { i32, ptr, i64, ptr, ptr, ptr, ptr, ptr, ptr, ptr, ptr }
%struct.CodedBitstreamContext = type { ptr, ptr, ptr, ptr, i32, i32, i32, ptr, ptr, ptr, ptr, i64 }

@cbs_type_table = internal constant [9 x ptr] [ptr @ff_cbs_type_apv, ptr @ff_cbs_type_av1, ptr @ff_cbs_type_h264, ptr @ff_cbs_type_h265, ptr @ff_cbs_type_h266, ptr @ff_cbs_type_jpeg, ptr @ff_cbs_type_mpeg2, ptr @ff_cbs_type_vp8, ptr @ff_cbs_type_vp9], align 16

; Function Attrs: cold nounwind optsize uwtable
define i32 @ff_cbs_init(ptr noundef %0, i32 noundef %1, ptr noundef %2) #0 {
  %4 = alloca i32, align 4
  %5 = alloca ptr, align 8
  %6 = alloca i32, align 4
  %7 = alloca ptr, align 8
  %8 = alloca ptr, align 8
  %9 = alloca ptr, align 8
  %10 = alloca i32, align 4
  %11 = alloca i32, align 4
  store ptr %0, ptr %5, align 8, !tbaa !4
  store i32 %1, ptr %6, align 4, !tbaa !10
  store ptr %2, ptr %7, align 8, !tbaa !12
  call void @llvm.lifetime.start.p0(i64 8, ptr %8) #13
  call void @llvm.lifetime.start.p0(i64 8, ptr %9) #13
  call void @llvm.lifetime.start.p0(i64 4, ptr %10) #13
  store ptr null, ptr %9, align 8, !tbaa !13
  store i32 0, ptr %10, align 4, !tbaa !10
  br label %12

12:                                               ; preds = %31, %3
  %13 = load i32, ptr %10, align 4, !tbaa !10
  %14 = sext i32 %13 to i64
  %15 = icmp ult i64 %14, 9
  br i1 %15, label %16, label %34

16:                                               ; preds = %12
  %17 = load i32, ptr %10, align 4, !tbaa !10
  %18 = sext i32 %17 to i64
  %19 = getelementptr inbounds [9 x ptr], ptr @cbs_type_table, i64 0, i64 %18
  %20 = load ptr, ptr %19, align 8, !tbaa !13
  %21 = getelementptr inbounds nuw %struct.CodedBitstreamType, ptr %20, i32 0, i32 0
  %22 = load i32, ptr %21, align 8, !tbaa !15
  %23 = load i32, ptr %6, align 4, !tbaa !10
  %24 = icmp eq i32 %22, %23
  br i1 %24, label %25, label %30

25:                                               ; preds = %16
  %26 = load i32, ptr %10, align 4, !tbaa !10
  %27 = sext i32 %26 to i64
  %28 = getelementptr inbounds [9 x ptr], ptr @cbs_type_table, i64 0, i64 %27
  %29 = load ptr, ptr %28, align 8, !tbaa !13
  store ptr %29, ptr %9, align 8, !tbaa !13
  br label %34

30:                                               ; preds = %16
  br label %31

31:                                               ; preds = %30
  %32 = load i32, ptr %10, align 4, !tbaa !10
  %33 = add nsw i32 %32, 1
  store i32 %33, ptr %10, align 4, !tbaa !10
  br label %12, !llvm.loop !20

34:                                               ; preds = %25, %12
  %35 = load ptr, ptr %9, align 8, !tbaa !13
  %36 = icmp ne ptr %35, null
  br i1 %36, label %38, label %37

37:                                               ; preds = %34
  store i32 -22, ptr %4, align 4
  store i32 1, ptr %11, align 4
  br label %96

38:                                               ; preds = %34
  %39 = call noalias ptr @av_mallocz(i64 noundef 88)
  store ptr %39, ptr %8, align 8, !tbaa !22
  %40 = load ptr, ptr %8, align 8, !tbaa !22
  %41 = icmp ne ptr %40, null
  br i1 %41, label %43, label %42

42:                                               ; preds = %38
  store i32 -12, ptr %4, align 4
  store i32 1, ptr %11, align 4
  br label %96

43:                                               ; preds = %38
  %44 = load ptr, ptr %7, align 8, !tbaa !12
  %45 = load ptr, ptr %8, align 8, !tbaa !22
  %46 = getelementptr inbounds nuw %struct.CodedBitstreamContext, ptr %45, i32 0, i32 0
  store ptr %44, ptr %46, align 8, !tbaa !24
  %47 = load ptr, ptr %9, align 8, !tbaa !13
  %48 = load ptr, ptr %8, align 8, !tbaa !22
  %49 = getelementptr inbounds nuw %struct.CodedBitstreamContext, ptr %48, i32 0, i32 1
  store ptr %47, ptr %49, align 8, !tbaa !28
  %50 = load ptr, ptr %9, align 8, !tbaa !13
  %51 = getelementptr inbounds nuw %struct.CodedBitstreamType, ptr %50, i32 0, i32 2
  %52 = load i64, ptr %51, align 8, !tbaa !29
  %53 = icmp ne i64 %52, 0
  br i1 %53, label %54, label %84

54:                                               ; preds = %43
  %55 = load ptr, ptr %8, align 8, !tbaa !22
  %56 = getelementptr inbounds nuw %struct.CodedBitstreamContext, ptr %55, i32 0, i32 1
  %57 = load ptr, ptr %56, align 8, !tbaa !28
  %58 = getelementptr inbounds nuw %struct.CodedBitstreamType, ptr %57, i32 0, i32 2
  %59 = load i64, ptr %58, align 8, !tbaa !29
  %60 = call noalias ptr @av_mallocz(i64 noundef %59)
  %61 = load ptr, ptr %8, align 8, !tbaa !22
  %62 = getelementptr inbounds nuw %struct.CodedBitstreamContext, ptr %61, i32 0, i32 2
  store ptr %60, ptr %62, align 8, !tbaa !30
  %63 = load ptr, ptr %8, align 8, !tbaa !22
  %64 = getelementptr inbounds nuw %struct.CodedBitstreamContext, ptr %63, i32 0, i32 2
  %65 = load ptr, ptr %64, align 8, !tbaa !30
  %66 = icmp ne ptr %65, null
  br i1 %66, label %68, label %67

67:                                               ; preds = %54
  call void @av_freep(ptr noundef %8)
  store i32 -12, ptr %4, align 4
  store i32 1, ptr %11, align 4
  br label %96

68:                                               ; preds = %54
  %69 = load ptr, ptr %9, align 8, !tbaa !13
  %70 = getelementptr inbounds nuw %struct.CodedBitstreamType, ptr %69, i32 0, i32 1
  %71 = load ptr, ptr %70, align 8, !tbaa !31
  %72 = icmp ne ptr %71, null
  br i1 %72, label %73, label %83

73:                                               ; preds = %68
  %74 = load ptr, ptr %9, align 8, !tbaa !13
  %75 = getelementptr inbounds nuw %struct.CodedBitstreamType, ptr %74, i32 0, i32 1
  %76 = load ptr, ptr %75, align 8, !tbaa !31
  %77 = load ptr, ptr %8, align 8, !tbaa !22
  %78 = getelementptr inbounds nuw %struct.CodedBitstreamContext, ptr %77, i32 0, i32 2
  %79 = load ptr, ptr %78, align 8, !tbaa !30
  store ptr %76, ptr %79, align 8, !tbaa !32
  %80 = load ptr, ptr %8, align 8, !tbaa !22
  %81 = getelementptr inbounds nuw %struct.CodedBitstreamContext, ptr %80, i32 0, i32 2
  %82 = load ptr, ptr %81, align 8, !tbaa !30
  call void @av_opt_set_defaults(ptr noundef %82)
  br label %83

83:                                               ; preds = %73, %68
  br label %84

84:                                               ; preds = %83, %43
  %85 = load ptr, ptr %8, align 8, !tbaa !22
  %86 = getelementptr inbounds nuw %struct.CodedBitstreamContext, ptr %85, i32 0, i32 3
  store ptr null, ptr %86, align 8, !tbaa !33
  %87 = load ptr, ptr %8, align 8, !tbaa !22
  %88 = getelementptr inbounds nuw %struct.CodedBitstreamContext, ptr %87, i32 0, i32 5
  store i32 0, ptr %88, align 4, !tbaa !34
  %89 = load ptr, ptr %8, align 8, !tbaa !22
  %90 = getelementptr inbounds nuw %struct.CodedBitstreamContext, ptr %89, i32 0, i32 6
  store i32 56, ptr %90, align 8, !tbaa !35
  %91 = load ptr, ptr %8, align 8, !tbaa !22
  %92 = load ptr, ptr %8, align 8, !tbaa !22
  %93 = getelementptr inbounds nuw %struct.CodedBitstreamContext, ptr %92, i32 0, i32 7
  store ptr %91, ptr %93, align 8, !tbaa !36
  %94 = load ptr, ptr %8, align 8, !tbaa !22
  %95 = load ptr, ptr %5, align 8, !tbaa !4
  store ptr %94, ptr %95, align 8, !tbaa !22
  store i32 0, ptr %4, align 4
  store i32 1, ptr %11, align 4
  br label %96

96:                                               ; preds = %84, %67, %42, %37
  call void @llvm.lifetime.end.p0(i64 4, ptr %10) #13
  call void @llvm.lifetime.end.p0(i64 8, ptr %9) #13
  call void @llvm.lifetime.end.p0(i64 8, ptr %8) #13
  %97 = load i32, ptr %4, align 4
  ret i32 %97
}