; Function Attrs: cold nounwind optsize uwtable
define range(i32 -22, 1) i32 @ff_cbs_init(ptr noundef writeonly captures(none) %0, i32 noundef %1, ptr noundef %2) local_unnamed_addr #0 {
  %4 = alloca ptr, align 8
  call void @llvm.lifetime.start.p0(i64 8, ptr nonnull %4) #10
  br label %6

5:                                                ; preds = %6
  %indvars.iv.next = add nuw nsw i64 %indvars.iv, 1
  %exitcond.not = icmp eq i64 %indvars.iv.next, 9
  br i1 %exitcond.not, label %.thread, label %6, !llvm.loop !4

6:                                                ; preds = %3, %5
  %indvars.iv = phi i64 [ 0, %3 ], [ %indvars.iv.next, %5 ]
  %7 = getelementptr inbounds nuw [9 x ptr], ptr @cbs_type_table, i64 0, i64 %indvars.iv
  %8 = load ptr, ptr %7, align 8, !tbaa !6
  %9 = load i32, ptr %8, align 8, !tbaa !11
  %10 = icmp eq i32 %9, %1
  br i1 %10, label %11, label %5

11:                                               ; preds = %6
  %12 = tail call noalias ptr @av_mallocz(i64 noundef 88) #10
  store ptr %12, ptr %4, align 8, !tbaa !17
  %.not18 = icmp eq ptr %12, null
  br i1 %.not18, label %.thread, label %13

13:                                               ; preds = %11
  store ptr %2, ptr %12, align 8, !tbaa !19
  %14 = getelementptr inbounds nuw i8, ptr %12, i64 8
  store ptr %8, ptr %14, align 8, !tbaa !23
  %15 = getelementptr inbounds nuw i8, ptr %8, i64 16
  %16 = load i64, ptr %15, align 8, !tbaa !24
  %.not19 = icmp eq i64 %16, 0
  br i1 %.not19, label %25, label %17

17:                                               ; preds = %13
  %18 = tail call noalias ptr @av_mallocz(i64 noundef %16) #10
  %19 = getelementptr inbounds nuw i8, ptr %12, i64 16
  store ptr %18, ptr %19, align 8, !tbaa !25
  %.not20 = icmp eq ptr %18, null
  br i1 %.not20, label %20, label %21

20:                                               ; preds = %17
  call void @av_freep(ptr noundef nonnull %4) #10
  br label %.thread

21:                                               ; preds = %17
  %22 = getelementptr inbounds nuw i8, ptr %8, i64 8
  %23 = load ptr, ptr %22, align 8, !tbaa !26
  %.not21 = icmp eq ptr %23, null
  br i1 %.not21, label %25, label %24

24:                                               ; preds = %21
  store ptr %23, ptr %18, align 8, !tbaa !27
  tail call void @av_opt_set_defaults(ptr noundef nonnull %18) #10
  br label %25

25:                                               ; preds = %21, %24, %13
  %26 = getelementptr inbounds nuw i8, ptr %12, i64 24
  store ptr null, ptr %26, align 8, !tbaa !28
  %27 = getelementptr inbounds nuw i8, ptr %12, i64 36
  store i32 0, ptr %27, align 4, !tbaa !29
  %28 = getelementptr inbounds nuw i8, ptr %12, i64 40
  store i32 56, ptr %28, align 8, !tbaa !30
  %29 = getelementptr inbounds nuw i8, ptr %12, i64 48
  store ptr %12, ptr %29, align 8, !tbaa !31
  store ptr %12, ptr %0, align 8, !tbaa !17
  br label %.thread

.thread:                                          ; preds = %5, %11, %25, %20
  %.013 = phi i32 [ 0, %25 ], [ -12, %20 ], [ -12, %11 ], [ -22, %5 ]
  call void @llvm.lifetime.end.p0(i64 8, ptr nonnull %4) #10
  ret i32 %.013
}